; Function Attrs: mustprogress nofree norecurse nosync nounwind willreturn memory(argmem: read) uwtable
define noundef zeroext i1 @_ZN32pxrInternal_v0_24__pxrReserved__neERKNS_28HgiShaderFunctionComputeDescES2_(ptr noundef nonnull readonly align 4 captures(none) dereferenceable(12) %0, ptr noundef nonnull readonly align 4 captures(none) dereferenceable(12) %1) local_unnamed_addr #5 {
  %3 = load i32, ptr %0, align 4
  %4 = load i32, ptr %1, align 4
  %5 = icmp eq i32 %3, %4
  br i1 %5, label %6, label %_ZN32pxrInternal_v0_24__pxrReserved__eqERKNS_28HgiShaderFunctionComputeDescES2_.exit

6:                                                ; preds = %2
  %7 = getelementptr inbounds nuw i8, ptr %0, i64 4
  %8 = load i32, ptr %7, align 4
  %9 = getelementptr inbounds nuw i8, ptr %1, i64 4
  %10 = load i32, ptr %9, align 4
  %11 = icmp eq i32 %8, %10
  br i1 %11, label %12, label %_ZN32pxrInternal_v0_24__pxrReserved__eqERKNS_28HgiShaderFunctionComputeDescES2_.exit

12:                                               ; preds = %6
  %13 = getelementptr inbounds nuw i8, ptr %0, i64 8
  %14 = load i32, ptr %13, align 4
  %15 = getelementptr inbounds nuw i8, ptr %1, i64 8
  %16 = load i32, ptr %15, align 4
  %17 = icmp ne i32 %14, %16
  br label %_ZN32pxrInternal_v0_24__pxrReserved__eqERKNS_28HgiShaderFunctionComputeDescES2_.exit

_ZN32pxrInternal_v0_24__pxrReserved__eqERKNS_28HgiShaderFunctionComputeDescES2_.exit: ; preds = %2, %6, %12
  %18 = phi i1 [ true, %6 ], [ true, %2 ], [ %17, %12 ]
  ret i1 %18
}